; Function Attrs: mustprogress uwtable
define hidden noundef zeroext i1 @_ZN10polynomial7manager10is_var_numEPKNS_10polynomialERjR15_scoped_numeralI11mpz_managerILb0EEE(ptr nocapture noundef nonnull readonly align 8 dereferenceable(8) %this, ptr nocapture noundef readonly %p, ptr nocapture noundef nonnull writeonly align 4 dereferenceable(4) %v, ptr noundef nonnull align 8 dereferenceable(24) %n) local_unnamed_addr #4 align 2 {
entry:
  %m_size.i = getelementptr inbounds i8, ptr %p, i64 8
  %0 = load i32, ptr %m_size.i, align 8
  %cmp = icmp eq i32 %0, 2
  br i1 %cmp, label %land.lhs.true, label %land.end

land.lhs.true:                                    ; preds = %entry
  %m_as.i = getelementptr inbounds i8, ptr %p, i64 16
  %1 = load ptr, ptr %m_as.i, align 8
  %m_kind.i.i.i = getelementptr inbounds i8, ptr %1, i64 4
  %bf.load.i.i.i = load i8, ptr %m_kind.i.i.i, align 4
  %bf.clear.i.i.i = and i8 %bf.load.i.i.i, 1
  %cmp.i.i.i = icmp eq i8 %bf.clear.i.i.i, 0
  %2 = load i32, ptr %1, align 8
  %cmp.i.i = icmp eq i32 %2, 1
  %3 = select i1 %cmp.i.i.i, i1 %cmp.i.i, i1 false
  br i1 %3, label %land.lhs.true5, label %land.end

land.lhs.true5:                                   ; preds = %land.lhs.true
  %m_ms.i = getelementptr inbounds i8, ptr %p, i64 24
  %4 = load ptr, ptr %m_ms.i, align 8
  %5 = load ptr, ptr %4, align 8
  %m_size.i.i = getelementptr inbounds i8, ptr %5, i64 12
  %6 = load i32, ptr %m_size.i.i, align 4
  %cmp.i = icmp eq i32 %6, 1
  br i1 %cmp.i, label %land.lhs.true.i, label %land.end

land.lhs.true.i:                                  ; preds = %land.lhs.true5
  %second.i.i.i = getelementptr inbounds i8, ptr %5, i64 24
  %7 = load i32, ptr %second.i.i.i, align 4
  %cmp2.i = icmp eq i32 %7, 1
  br i1 %cmp2.i, label %land.lhs.true8, label %land.end

land.lhs.true8:                                   ; preds = %land.lhs.true.i
  %m_powers.i.i.i = getelementptr inbounds i8, ptr %5, i64 20
  %8 = load i32, ptr %m_powers.i.i.i, align 4
  store i32 %8, ptr %v, align 4
  %9 = load ptr, ptr %m_ms.i, align 8
  %arrayidx.i = getelementptr inbounds i8, ptr %9, i64 8
  %10 = load ptr, ptr %arrayidx.i, align 8
  %m_size.i.i6 = getelementptr inbounds i8, ptr %10, i64 12
  %11 = load i32, ptr %m_size.i.i6, align 4
  %cmp.i7 = icmp eq i32 %11, 0
  br i1 %cmp.i7, label %land.rhs, label %land.end

land.rhs:                                         ; preds = %land.lhs.true8
  %12 = load ptr, ptr %m_as.i, align 8
  %arrayidx.i9 = getelementptr inbounds i8, ptr %12, i64 16
  %m_num.i = getelementptr inbounds i8, ptr %n, i64 8
  %m_kind.i.i.i10 = getelementptr inbounds i8, ptr %12, i64 20
  %bf.load.i.i.i11 = load i8, ptr %m_kind.i.i.i10, align 4
  %bf.clear.i.i.i12 = and i8 %bf.load.i.i.i11, 1
  %cmp.i.i.i13 = icmp eq i8 %bf.clear.i.i.i12, 0
  br i1 %cmp.i.i.i13, label %if.then.i.i, label %if.else.i.i

if.then.i.i:                                      ; preds = %land.rhs
  %13 = load i32, ptr %arrayidx.i9, align 8
  store i32 %13, ptr %m_num.i, align 8
  %m_kind.i.i = getelementptr inbounds i8, ptr %n, i64 12
  %bf.load.i.i = load i8, ptr %m_kind.i.i, align 4
  %bf.clear.i.i = and i8 %bf.load.i.i, -2
  store i8 %bf.clear.i.i, ptr %m_kind.i.i, align 4
  br label %land.end

if.else.i.i:                                      ; preds = %land.rhs
  %14 = load ptr, ptr %n, align 8
  tail call void @_ZN11mpz_managerILb0EE7big_setER3mpzRKS1_(ptr noundef nonnull align 8 dereferenceable(600) %14, ptr noundef nonnull align 8 dereferenceable(16) %m_num.i, ptr noundef nonnull align 8 dereferenceable(16) %arrayidx.i9)
  br label %land.end

land.end:                                         ; preds = %land.lhs.true5, %land.lhs.true.i, %if.else.i.i, %if.then.i.i, %land.lhs.true8, %land.lhs.true, %entry
  %15 = phi i1 [ false, %land.lhs.true8 ], [ false, %land.lhs.true ], [ false, %entry ], [ true, %if.then.i.i ], [ true, %if.else.i.i ], [ false, %land.lhs.true.i ], [ false, %land.lhs.true5 ]
  ret i1 %15
}